target datalayout = "e-m:e-p270:32:32-p271:32:32-p272:64:64-i64:64-i128:128-f80:128-n8:16:32:64-S128"
target triple = "x86_64-pc-linux-gnu"

%struct._zend_php_scanner_globals = type { ptr, ptr, i32, ptr, ptr, ptr, ptr, ptr, i32, %struct._zend_stack, %struct._zend_ptr_stack, %struct._zend_stack, i8, i32, i8, ptr, i64, ptr, i64, ptr, ptr, ptr, i32, ptr, ptr }
%struct._zend_ptr_stack = type { i32, i32, ptr, ptr, i8 }
%struct._zend_stack = type { i32, i32, i32, ptr }

@zend_write = external global ptr, align 8
@.str = private unnamed_addr constant [5 x i8] c"&lt;\00", align 1
@.str.1 = private unnamed_addr constant [5 x i8] c"&gt;\00", align 1
@.str.2 = private unnamed_addr constant [6 x i8] c"&amp;\00", align 1
@.str.3 = private unnamed_addr constant [5 x i8] c"    \00", align 1
@language_scanner_globals = external global %struct._zend_php_scanner_globals, align 8

; Function Attrs: nounwind uwtable
define void @zend_html_putc(i8 noundef signext %0) #0 {
  %2 = alloca i8, align 1
  store i8 %0, ptr %2, align 1
  %3 = load i8, ptr %2, align 1
  %4 = sext i8 %3 to i32
  switch i32 %4, label %17 [
    i32 60, label %5
    i32 62, label %8
    i32 38, label %11
    i32 9, label %14
  ]

5:                                                ; preds = %1
  %6 = load ptr, ptr @zend_write, align 8
  %7 = call i64 %6(ptr noundef @.str, i64 noundef 4)
  br label %20

8:                                                ; preds = %1
  %9 = load ptr, ptr @zend_write, align 8
  %10 = call i64 %9(ptr noundef @.str.1, i64 noundef 4)
  br label %20

11:                                               ; preds = %1
  %12 = load ptr, ptr @zend_write, align 8
  %13 = call i64 %12(ptr noundef @.str.2, i64 noundef 5)
  br label %20

14:                                               ; preds = %1
  %15 = load ptr, ptr @zend_write, align 8
  %16 = call i64 %15(ptr noundef @.str.3, i64 noundef 4)
  br label %20

17:                                               ; preds = %1
  %18 = load ptr, ptr @zend_write, align 8
  %19 = call i64 %18(ptr noundef %2, i64 noundef 1)
  br label %20

20:                                               ; preds = %17, %14, %11, %8, %5
  ret void
}

; Function Attrs: nounwind uwtable
define void @zend_html_puts(ptr noundef %0, i64 noundef %1) #0 {
  %3 = alloca ptr, align 8
  %4 = alloca i64, align 8
  %5 = alloca ptr, align 8
  %6 = alloca ptr, align 8
  %7 = alloca ptr, align 8
  %8 = alloca i64, align 8
  store ptr %0, ptr %3, align 8
  store i64 %1, ptr %4, align 8
  %9 = load ptr, ptr %3, align 8
  store ptr %9, ptr %5, align 8
  %10 = load ptr, ptr %5, align 8
  %11 = load i64, ptr %4, align 8
  %12 = getelementptr inbounds i8, ptr %10, i64 %11
  store ptr %12, ptr %6, align 8
  store ptr null, ptr %7, align 8
  %13 = load ptr, ptr getelementptr inbounds (%struct._zend_php_scanner_globals, ptr @language_scanner_globals, i32 0, i32 20), align 8
  %14 = icmp ne ptr %13, null
  br i1 %14, label %15, label %24

15:                                               ; preds = %2
  %16 = load ptr, ptr getelementptr inbounds (%struct._zend_php_scanner_globals, ptr @language_scanner_globals, i32 0, i32 20), align 8
  %17 = load ptr, ptr %5, align 8
  %18 = load i64, ptr %4, align 8
  %19 = call i64 %16(ptr noundef %7, ptr noundef %8, ptr noundef %17, i64 noundef %18)
  %20 = load ptr, ptr %7, align 8
  store ptr %20, ptr %5, align 8
  %21 = load ptr, ptr %7, align 8
  %22 = load i64, ptr %8, align 8
  %23 = getelementptr inbounds i8, ptr %21, i64 %22
  store ptr %23, ptr %6, align 8
  br label %24

24:                                               ; preds = %15, %2
  br label %25

25:                                               ; preds = %55, %24
  %26 = load ptr, ptr %5, align 8
  %27 = load ptr, ptr %6, align 8
  %28 = icmp ult ptr %26, %27
  br i1 %28, label %29, label %56

29:                                               ; preds = %25
  %30 = load ptr, ptr %5, align 8
  %31 = load i8, ptr %30, align 1
  %32 = zext i8 %31 to i32
  %33 = icmp eq i32 %32, 32
  br i1 %33, label %34, label %51

34:                                               ; preds = %29
  br label %35

35:                                               ; preds = %48, %34
  %36 = load ptr, ptr %5, align 8
  %37 = load i8, ptr %36, align 1
  call void @zend_html_putc(i8 noundef signext %37)
  br label %38

38:                                               ; preds = %35
  %39 = load ptr, ptr %5, align 8
  %40 = getelementptr inbounds i8, ptr %39, i32 1
  store ptr %40, ptr %5, align 8
  %41 = load ptr, ptr %6, align 8
  %42 = icmp ult ptr %40, %41
  br i1 %42, label %43, label %48

43:                                               ; preds = %38
  %44 = load ptr, ptr %5, align 8
  %45 = load i8, ptr %44, align 1
  %46 = zext i8 %45 to i32
  %47 = icmp eq i32 %46, 32
  br label %48

48:                                               ; preds = %43, %38
  %49 = phi i1 [ false, %38 ], [ %47, %43 ]
  br i1 %49, label %35, label %50

50:                                               ; preds = %48
  br label %55

51:                                               ; preds = %29
  %52 = load ptr, ptr %5, align 8
  %53 = getelementptr inbounds i8, ptr %52, i32 1
  store ptr %53, ptr %5, align 8
  %54 = load i8, ptr %52, align 1
  call void @zend_html_putc(i8 noundef signext %54)
  br label %55

55:                                               ; preds = %51, %50
  br label %25

56:                                               ; preds = %25
  %57 = load ptr, ptr getelementptr inbounds (%struct._zend_php_scanner_globals, ptr @language_scanner_globals, i32 0, i32 20), align 8
  %58 = icmp ne ptr %57, null
  br i1 %58, label %59, label %61

59:                                               ; preds = %56
  %60 = load ptr, ptr %7, align 8
  call void @_efree(ptr noundef %60)
  br label %61

61:                                               ; preds = %59, %56
  ret void
}