; Function Attrs: nounwind uwtable
define void @zend_html_puts(ptr noundef %0, i64 noundef %1) local_unnamed_addr #0 {
  %3 = alloca i8, align 1
  %4 = alloca i8, align 1
  %5 = alloca ptr, align 8
  %6 = alloca i64, align 8
  %7 = getelementptr inbounds i8, ptr %0, i64 %1
  store ptr null, ptr %5, align 8
  %8 = load ptr, ptr getelementptr inbounds (%struct._zend_php_scanner_globals, ptr @language_scanner_globals, i64 0, i32 20), align 8
  %.not = icmp eq ptr %8, null
  br i1 %.not, label %14, label %9

9:                                                ; preds = %2
  %10 = call i64 %8(ptr noundef nonnull %5, ptr noundef nonnull %6, ptr noundef %0, i64 noundef %1) #4
  %11 = load ptr, ptr %5, align 8
  %12 = load i64, ptr %6, align 8
  %13 = getelementptr inbounds i8, ptr %11, i64 %12
  br label %14

14:                                               ; preds = %9, %2
  %.012 = phi ptr [ %11, %9 ], [ %0, %2 ]
  %.0 = phi ptr [ %13, %9 ], [ %7, %2 ]
  %15 = icmp ult ptr %.012, %.0
  br i1 %15, label %.lr.ph, label %._crit_edge

.lr.ph:                                           ; preds = %14, %.critedge
  %.118 = phi ptr [ %.3, %.critedge ], [ %.012, %14 ]
  %16 = load i8, ptr %.118, align 1
  %17 = icmp eq i8 %16, 32
  br i1 %17, label %zend_html_putc.exit, label %25

zend_html_putc.exit:                              ; preds = %.lr.ph, %22
  %.2 = phi ptr [ %20, %22 ], [ %.118, %.lr.ph ]
  call void @llvm.lifetime.start.p0(i64 1, ptr nonnull %4)
  store i8 32, ptr %4, align 1
  %18 = load ptr, ptr @zend_write, align 8
  %19 = call i64 %18(ptr noundef nonnull %4, i64 noundef 1) #4
  call void @llvm.lifetime.end.p0(i64 1, ptr nonnull %4)
  %20 = getelementptr inbounds i8, ptr %.2, i64 1
  %21 = icmp ult ptr %20, %.0
  br i1 %21, label %22, label %.critedge

22:                                               ; preds = %zend_html_putc.exit
  %23 = load i8, ptr %20, align 1
  %24 = icmp eq i8 %23, 32
  br i1 %24, label %zend_html_putc.exit, label %.critedge

25:                                               ; preds = %.lr.ph
  %26 = getelementptr inbounds i8, ptr %.118, i64 1
  call void @llvm.lifetime.start.p0(i64 1, ptr nonnull %3)
  store i8 %16, ptr %3, align 1
  %27 = load ptr, ptr @zend_write, align 8
  switch i8 %16, label %36 [
    i8 60, label %28
    i8 62, label %30
    i8 38, label %32
    i8 9, label %34
  ]

28:                                               ; preds = %25
  %29 = call i64 %27(ptr noundef nonnull @.str, i64 noundef 4) #4
  br label %zend_html_putc.exit17

30:                                               ; preds = %25
  %31 = call i64 %27(ptr noundef nonnull @.str.1, i64 noundef 4) #4
  br label %zend_html_putc.exit17

32:                                               ; preds = %25
  %33 = call i64 %27(ptr noundef nonnull @.str.2, i64 noundef 5) #4
  br label %zend_html_putc.exit17

34:                                               ; preds = %25
  %35 = call i64 %27(ptr noundef nonnull @.str.3, i64 noundef 4) #4
  br label %zend_html_putc.exit17

36:                                               ; preds = %25
  %37 = call i64 %27(ptr noundef nonnull %3, i64 noundef 1) #4
  br label %zend_html_putc.exit17

zend_html_putc.exit17:                            ; preds = %28, %30, %32, %34, %36
  call void @llvm.lifetime.end.p0(i64 1, ptr nonnull %3)
  br label %.critedge

.critedge:                                        ; preds = %zend_html_putc.exit, %22, %zend_html_putc.exit17
  %.3 = phi ptr [ %26, %zend_html_putc.exit17 ], [ %20, %22 ], [ %20, %zend_html_putc.exit ]
  %38 = icmp ult ptr %.3, %.0
  br i1 %38, label %.lr.ph, label %._crit_edge

._crit_edge:                                      ; preds = %.critedge, %14
  %39 = load ptr, ptr getelementptr inbounds (%struct._zend_php_scanner_globals, ptr @language_scanner_globals, i64 0, i32 20), align 8
  %.not16 = icmp eq ptr %39, null
  br i1 %.not16, label %42, label %40

40:                                               ; preds = %._crit_edge
  %41 = load ptr, ptr %5, align 8
  call void @_efree(ptr noundef %41) #4
  br label %42

42:                                               ; preds = %40, %._crit_edge
  ret void
}